; ModuleID = 'source-C-CXX/44/1810.c'
source_filename = "source-C-CXX/44/1810.c"
target datalayout = "e-m:e-p270:32:32-p271:32:32-p272:64:64-i64:64-f80:128-n8:16:32:64-S128"
target triple = "x86_64-pc-linux-gnu"

@.str = private unnamed_addr constant [3 x i8] c"%s\00", align 1
@.str.1 = private unnamed_addr constant [3 x i8] c"%d\00", align 1

; Function Attrs: nofree nounwind sspstrong uwtable
define dso_local i32 @main() local_unnamed_addr #0 {
  %1 = alloca [50 x i8], align 16
  %2 = alloca [50 x i8], align 16
  %3 = alloca [50 x i8], align 16
  %4 = getelementptr inbounds [50 x i8], [50 x i8]* %3, i64 0, i64 0
  %5 = getelementptr inbounds [50 x i8], [50 x i8]* %1, i64 0, i64 0
  call void @llvm.lifetime.start.p0i8(i64 50, i8* nonnull %5) #6
  %6 = getelementptr inbounds [50 x i8], [50 x i8]* %2, i64 0, i64 0
  call void @llvm.lifetime.start.p0i8(i64 50, i8* nonnull %6) #6
  %7 = getelementptr inbounds [50 x i8], [50 x i8]* %3, i64 0, i64 0
  call void @llvm.lifetime.start.p0i8(i64 50, i8* nonnull %7) #6
  %8 = call i32 (i8*, ...) @__isoc99_scanf(i8* getelementptr inbounds ([3 x i8], [3 x i8]* @.str, i64 0, i64 0), i8* nonnull %5)
  %9 = call i32 (i8*, ...) @__isoc99_scanf(i8* getelementptr inbounds ([3 x i8], [3 x i8]* @.str, i64 0, i64 0), i8* nonnull %6)
  %10 = call i64 @strlen(i8* noundef nonnull %5) #7
  %11 = call i64 @strlen(i8* noundef nonnull %6) #7
  %12 = trunc i64 %11 to i32
  %13 = shl i64 %10, 32
  %14 = ashr exact i64 %13, 32
  %15 = getelementptr inbounds [50 x i8], [50 x i8]* %3, i64 0, i64 %14
  %16 = icmp sgt i32 %12, 0
  br i1 %16, label %17, label %44

17:                                               ; preds = %0
  %18 = trunc i64 %10 to i32
  %19 = and i64 %11, 4294967295
  %20 = icmp sgt i32 %18, 0
  br label %21

21:                                               ; preds = %17, %41
  %22 = phi i64 [ 0, %17 ], [ %24, %41 ]
  %23 = phi i32 [ 0, %17 ], [ %42, %41 ]
  %24 = add nuw nsw i64 %22, 1
  br i1 %20, label %25, label %36

25:                                               ; preds = %21
  %26 = add i64 %10, %22
  %27 = trunc i64 %26 to i32
  %28 = trunc i64 %24 to i32
  %29 = call i32 @llvm.smax.i32(i32 %27, i32 %28)
  %30 = trunc i64 %22 to i32
  %31 = xor i32 %30, -1
  %32 = add i32 %29, %31
  %33 = zext i32 %32 to i64
  %34 = add nuw nsw i64 %33, 1
  %35 = getelementptr [50 x i8], [50 x i8]* %2, i64 0, i64 %22
  call void @llvm.memcpy.p0i8.p0i8.i64(i8* noundef nonnull align 16 %4, i8* noundef nonnull align 1 dereferenceable(1) %35, i64 %34, i1 false)
  br label %36

36:                                               ; preds = %25, %21
  store i8 0, i8* %15, align 1, !tbaa !5
  %37 = call i32 @strcmp(i8* noundef nonnull %5, i8* noundef nonnull %7) #7
  %38 = icmp eq i32 %37, 0
  br i1 %38, label %39, label %41

39:                                               ; preds = %36
  %40 = call i32 (i8*, ...) @printf(i8* nonnull dereferenceable(1) getelementptr inbounds ([3 x i8], [3 x i8]* @.str.1, i64 0, i64 0), i32 %23)
  br label %44

41:                                               ; preds = %36
  %42 = add nuw nsw i32 %23, 1
  %43 = icmp eq i64 %24, %19
  br i1 %43, label %44, label %21, !llvm.loop !8

44:                                               ; preds = %41, %0, %39
  call void @llvm.lifetime.end.p0i8(i64 50, i8* nonnull %7) #6
  call void @llvm.lifetime.end.p0i8(i64 50, i8* nonnull %6) #6
  call void @llvm.lifetime.end.p0i8(i64 50, i8* nonnull %5) #6
  ret i32 0
}

; Function Attrs: argmemonly mustprogress nofree nosync nounwind willreturn
declare void @llvm.lifetime.start.p0i8(i64 immarg, i8* nocapture) #1

; Function Attrs: nofree nounwind
declare noundef i32 @__isoc99_scanf(i8* nocapture noundef readonly, ...) local_unnamed_addr #2

; Function Attrs: argmemonly mustprogress nofree nounwind readonly willreturn
declare i64 @strlen(i8* nocapture) local_unnamed_addr #3

; Function Attrs: argmemonly mustprogress nofree nounwind readonly willreturn
declare i32 @strcmp(i8* nocapture, i8* nocapture) local_unnamed_addr #3

; Function Attrs: nofree nounwind
declare noundef i32 @printf(i8* nocapture noundef readonly, ...) local_unnamed_addr #2

; Function Attrs: argmemonly mustprogress nofree nosync nounwind willreturn
declare void @llvm.lifetime.end.p0i8(i64 immarg, i8* nocapture) #1

; Function Attrs: nofree nosync nounwind readnone speculatable willreturn
declare i32 @llvm.smax.i32(i32, i32) #4

; Function Attrs: argmemonly nofree nounwind willreturn
declare void @llvm.memcpy.p0i8.p0i8.i64(i8* noalias nocapture writeonly, i8* noalias nocapture readonly, i64, i1 immarg) #5


!llvm.module.flags = !{!0, !1, !2, !3}
!llvm.ident = !{!4}

!0 = !{i32 1, !"wchar_size", i32 4}
!1 = !{i32 7, !"PIC Level", i32 2}
!2 = !{i32 7, !"PIE Level", i32 2}
!3 = !{i32 7, !"uwtable", i32 1}
!4 = !{!"clang version 13.0.0"}
!5 = !{!6, !6, i64 0}
!6 = !{!"omnipotent char", !7, i64 0}
!7 = !{!"Simple C/C++ TBAA"}
!8 = distinct !{!8, !9}
!9 = !{!"llvm.loop.mustprogress"}
